Certificate:
    Data:
        Version: 3 (0x2)
        Serial Number:
            9f:e4:f9:57:3d:b6:7d:8a:17:8a:70:92:d0:0a:7e:ab
        Signature Algorithm: sha256WithRSAEncryption
        Issuer: CN=Routerology-CA
        Validity
            Not Before: Apr  5 14:45:40 2025 GMT
            Not After : Jul  9 14:45:40 2027 GMT
        Subject: CN=routerology-vpn-client
        Subject Public Key Info:
            Public Key Algorithm: rsaEncryption
                Public-Key: (2048 bit)
                Modulus:
                    00:e7:e3:59:78:ae:69:72:fa:4d:18:a9:8d:35:51:
                    8f:34:de:e3:f8:b3:9f:4f:32:fd:02:f6:45:42:81:
                    ac:9a:9d:69:91:b0:34:02:71:b8:30:69:a1:4c:4f:
                    90:97:16:2f:af:76:e5:bb:05:b2:be:06:83:e3:13:
                    ab:b7:60:1b:fe:7a:34:c9:cb:1c:35:4b:71:e3:ba:
                    1b:08:65:9f:66:e3:8d:f6:15:33:4a:f6:2d:50:6c:
                    9c:f0:6b:40:0d:67:f0:5d:2e:2c:1a:e9:0c:63:30:
                    e9:87:c5:72:35:9d:1b:db:1d:6d:23:99:af:ce:71:
                    e7:07:1f:ba:33:8c:51:99:f7:ab:bc:4c:1e:9c:33:
                    ca:1e:fd:b8:0b:32:d4:b1:b7:d2:85:3a:d4:6b:3e:
                    1b:ad:7f:fd:f0:f0:64:a3:1c:f3:a2:4b:31:3a:fb:
                    53:10:27:cb:3c:a2:bf:4f:3c:bc:75:38:5c:9f:73:
                    a3:bc:44:b4:cd:85:97:9e:ae:65:50:5f:36:6d:01:
                    8e:4e:c0:7e:09:c3:c1:8d:7f:f0:74:71:f2:84:6c:
                    6d:72:fe:c3:8e:02:21:15:b8:d1:2f:57:e8:ee:46:
                    8b:1a:e1:e5:3b:80:1a:28:c1:0d:51:8f:65:fc:26:
                    c8:0a:0e:63:aa:7e:95:7f:b3:3d:6b:c7:85:74:48:
                    5e:bd
                Exponent: 65537 (0x10001)
        X509v3 extensions:
            X509v3 Basic Constraints: 
                CA:FALSE
            X509v3 Subject Key Identifier: 
                01:00:32:BD:9F:3B:CC:C1:F0:CD:94:7A:07:9F:06:05:C7:0C:2E:6E
            X509v3 Authority Key Identifier: 
                keyid:B0:51:74:75:13:FA:39:0E:60:3D:42:20:76:43:B0:5D:38:08:99:BA
                DirName:/CN=Routerology-CA
                serial:29:DC:42:BB:72:9A:76:3F:43:2E:9C:DC:1E:84:F8:E8:26:02:B6:41
            X509v3 Extended Key Usage: 
                TLS Web Client Authentication
            X509v3 Key Usage: 
                Digital Signature
    Signature Algorithm: sha256WithRSAEncryption
    Signature Value:
        7e:00:a0:6f:e4:cc:e7:2f:15:f4:33:f0:0c:ff:8f:64:6d:e9:
        20:a1:4c:78:30:7b:a4:10:6d:e8:51:7d:08:cb:79:b0:05:2f:
        c2:06:c0:59:4e:25:cb:db:70:79:26:e4:ab:be:3e:5a:8b:a3:
        95:6c:3d:7f:cb:6c:65:90:f0:b5:13:1e:f5:1d:03:90:b7:00:
        a2:47:9f:25:ad:0f:35:95:a6:05:45:90:b3:3f:c3:cc:50:48:
        f6:c0:ac:ae:4a:5c:72:01:0f:54:74:5b:ec:39:72:d6:66:37:
        7a:61:da:6d:63:77:02:f4:42:90:6d:95:fb:99:70:94:f8:cf:
        4b:2e:f7:36:a4:05:16:3b:dd:6d:6d:bb:b8:27:d8:b5:e2:1f:
        e9:95:68:b7:f0:b6:18:0b:71:8c:03:58:d0:f4:28:08:7a:c1:
        95:04:ca:22:6a:16:86:fa:53:8d:66:4b:50:7f:e1:c5:9c:0c:
        23:22:cd:18:43:8c:ee:1a:35:4c:7f:64:86:b7:83:07:df:bf:
        b3:bb:70:d0:3b:b1:05:8c:05:01:f0:33:4e:89:e5:83:fc:e5:
        54:de:2a:06:ef:a2:20:81:83:41:7c:bd:b3:b0:a5:34:fa:39:
        f3:e8:6f:97:ef:00:73:71:7a:c5:dd:54:c8:b4:ef:54:de:6e:
        d8:e9:da:70
-----BEGIN CERTIFICATE-----
MIIDazCCAlOgAwIBAgIRAJ/k+Vc9tn2KF4pwktAKfqswDQYJKoZIhvcNAQELBQAw
GTEXMBUGA1UEAwwOUm91dGVyb2xvZ3ktQ0EwHhcNMjUwNDA1MTQ0NTQwWhcNMjcw
NzA5MTQ0NTQwWjAhMR8wHQYDVQQDDBZyb3V0ZXJvbG9neS12cG4tY2xpZW50MIIB
IjANBgkqhkiG9w0BAQEFAAOCAQ8AMIIBCgKCAQEA5+NZeK5pcvpNGKmNNVGPNN7j
+LOfTzL9AvZFQoGsmp1pkbA0AnG4MGmhTE+QlxYvr3bluwWyvgaD4xOrt2Ab/no0
ycscNUtx47obCGWfZuON9hUzSvYtUGyc8GtADWfwXS4sGukMYzDph8VyNZ0b2x1t
I5mvznHnBx+6M4xRmfervEwenDPKHv24CzLUsbfShTrUaz4brX/98PBkoxzzoksx
OvtTECfLPKK/Tzy8dThcn3OjvES0zYWXnq5lUF82bQGOTsB+CcPBjX/wdHHyhGxt
cv7DjgIhFbjRL1fo7kaLGuHlO4AaKMENUY9l/CbICg5jqn6Vf7M9a8eFdEhevQID
AQABo4GlMIGiMAkGA1UdEwQCMAAwHQYDVR0OBBYEFAEAMr2fO8zB8M2UegefBgXH
DC5uMFQGA1UdIwRNMEuAFLBRdHUT+jkOYD1CIHZDsF04CJm6oR2kGzAZMRcwFQYD
VQQDDA5Sb3V0ZXJvbG9neS1DQYIUKdxCu3Kadj9DLpzcHoT46CYCtkEwEwYDVR0l
BAwwCgYIKwYBBQUHAwIwCwYDVR0PBAQDAgeAMA0GCSqGSIb3DQEBCwUAA4IBAQB+
AKBv5MznLxX0M/AM/49kbekgoUx4MHukEG3oUX0Iy3mwBS/CBsBZTiXL23B5JuSr
vj5ai6OVbD1/y2xlkPC1Ex71HQOQtwCiR58lrQ81laYFRZCzP8PMUEj2wKyuSlxy
AQ9UdFvsOXLWZjd6YdptY3cC9EKQbZX7mXCU+M9LLvc2pAUWO91tbbu4J9i14h/p
lWi38LYYC3GMA1jQ9CgIesGVBMoiahaG+lONZktQf+HFnAwjIs0YQ4zuGjVMf2SG
t4MH37+zu3DQO7EFjAUB8DNOieWD/OVU3ioG76IggYNBfL2zsKU0+jnz6G+X7wBz
cXrF3VTItO9U3m7Y6dpw
-----END CERTIFICATE-----
