Certificate:
    Data:
        Version: 3 (0x2)
        Serial Number:
            a3:89:d5:7f:bf:f9:78:74:bf:44:81:8c:70:77:e6:6c
        Signature Algorithm: sha256WithRSAEncryption
        Issuer: CN=Routerology-CA
        Validity
            Not Before: May 21 08:10:45 2023 GMT
            Not After : Aug 23 08:10:45 2025 GMT
        Subject: CN=daniel.grigore
        Subject Public Key Info:
            Public Key Algorithm: rsaEncryption
                RSA Public-Key: (2048 bit)
                Modulus:
                    00:cd:19:16:3b:ec:ea:59:e5:aa:0b:e4:cf:65:7f:
                    c9:46:7d:c4:e3:98:df:fb:cd:4c:6c:c4:66:dc:f1:
                    f3:f4:d6:40:e7:d3:5e:9d:65:3f:13:9b:13:4b:09:
                    20:73:d9:26:61:92:e7:8c:ee:05:67:ed:9a:34:dc:
                    20:90:2a:a9:4a:94:fa:25:1b:57:c8:fc:b6:8f:81:
                    5b:a6:44:29:c8:bc:10:7d:2f:ab:ba:c1:a6:53:4f:
                    4d:fc:d5:98:b1:99:7d:8a:c0:15:f4:d8:b3:04:81:
                    ae:cc:10:c9:a7:ee:b0:12:1b:ea:ad:a1:e1:be:56:
                    83:b7:25:63:9f:29:ba:99:80:f5:90:88:99:c8:0f:
                    8f:40:08:82:8c:c9:bc:0b:74:e5:0e:f7:04:ab:38:
                    76:c0:60:d7:bf:27:fe:a8:85:e2:f6:b1:8a:7c:b8:
                    84:49:ba:20:e2:f1:b6:eb:ab:5b:40:51:f6:ae:8b:
                    1d:ab:98:3a:1b:2c:07:53:87:06:df:61:9a:0d:48:
                    e6:1b:b6:16:c6:57:ee:80:41:40:e0:33:20:d4:85:
                    f1:69:53:91:b3:6d:9c:8a:9f:e1:5f:d4:ee:bb:fa:
                    c7:af:f8:fc:d1:30:03:bd:62:7b:fd:87:d4:be:b6:
                    75:31:7d:95:3d:a4:a8:ea:75:02:08:8a:7d:70:08:
                    14:69
                Exponent: 65537 (0x10001)
        X509v3 extensions:
            X509v3 Basic Constraints: 
                CA:FALSE
            X509v3 Subject Key Identifier: 
                85:57:C6:2C:FE:B9:0D:F2:C5:D3:7E:77:06:D0:F8:4D:82:09:B9:16
            X509v3 Authority Key Identifier: 
                keyid:A6:32:BA:CD:97:BC:9E:EA:A6:48:C5:77:32:33:B8:58:AB:EF:71:82
                DirName:/CN=Routerology-CA
                serial:7D:BC:4F:DC:F9:D4:1A:76:6A:DB:8F:0E:BE:DE:58:19:1D:26:52:85

            X509v3 Extended Key Usage: 
                TLS Web Client Authentication
            X509v3 Key Usage: 
                Digital Signature
    Signature Algorithm: sha256WithRSAEncryption
         62:0d:f5:eb:7b:50:34:9f:4d:07:d6:f6:35:e9:75:b8:65:b0:
         cb:29:08:63:e5:58:7c:7f:54:79:c9:88:ed:eb:56:53:a6:34:
         87:9e:56:f7:02:d0:c8:ef:42:da:d6:11:34:9f:1f:ab:0b:4b:
         7b:67:14:a3:7b:78:b7:e3:0f:eb:ac:9d:dd:05:af:09:f4:60:
         ec:5d:11:65:33:11:7b:fe:fa:a2:6c:6f:ac:e7:1e:fe:de:79:
         6b:36:08:64:f7:f6:f5:e1:ad:9c:cf:3d:fa:e6:37:af:d3:31:
         3f:b0:b8:4b:b3:c0:fd:7e:1c:16:e6:84:fc:af:c3:bb:04:ba:
         76:c0:bb:31:9d:6a:9f:a1:28:23:73:07:6e:f1:38:6d:10:bd:
         3a:7a:30:31:5a:7f:33:71:a4:60:b2:d7:a7:68:3d:53:22:8b:
         61:5f:c6:f9:6d:77:59:ac:17:52:85:d3:4b:4d:8e:a9:eb:85:
         95:be:06:cd:91:0e:b6:18:b8:cc:cf:34:35:4c:c0:aa:e0:53:
         c2:7d:29:79:44:06:f9:12:1e:b4:66:12:14:ac:5e:28:6d:d4:
         c5:3b:9d:46:f6:82:fe:39:12:74:5d:b2:61:76:07:44:a2:9d:
         18:e0:37:2a:1f:b1:6c:53:32:1a:95:39:ac:f5:17:3b:28:8b:
         0e:3c:76:b7
-----BEGIN CERTIFICATE-----
MIIDYzCCAkugAwIBAgIRAKOJ1X+/+Xh0v0SBjHB35mwwDQYJKoZIhvcNAQELBQAw
GTEXMBUGA1UEAwwOUm91dGVyb2xvZ3ktQ0EwHhcNMjMwNTIxMDgxMDQ1WhcNMjUw
ODIzMDgxMDQ1WjAZMRcwFQYDVQQDDA5kYW5pZWwuZ3JpZ29yZTCCASIwDQYJKoZI
hvcNAQEBBQADggEPADCCAQoCggEBAM0ZFjvs6lnlqgvkz2V/yUZ9xOOY3/vNTGzE
Ztzx8/TWQOfTXp1lPxObE0sJIHPZJmGS54zuBWftmjTcIJAqqUqU+iUbV8j8to+B
W6ZEKci8EH0vq7rBplNPTfzVmLGZfYrAFfTYswSBrswQyafusBIb6q2h4b5Wg7cl
Y58pupmA9ZCImcgPj0AIgozJvAt05Q73BKs4dsBg178n/qiF4vaxiny4hEm6IOLx
tuurW0BR9q6LHauYOhssB1OHBt9hmg1I5hu2FsZX7oBBQOAzINSF8WlTkbNtnIqf
4V/U7rv6x6/4/NEwA71ie/2H1L62dTF9lT2kqOp1AgiKfXAIFGkCAwEAAaOBpTCB
ojAJBgNVHRMEAjAAMB0GA1UdDgQWBBSFV8Ys/rkN8sXTfncG0PhNggm5FjBUBgNV
HSMETTBLgBSmMrrNl7ye6qZIxXcyM7hYq+9xgqEdpBswGTEXMBUGA1UEAwwOUm91
dGVyb2xvZ3ktQ0GCFH28T9z51Bp2atuPDr7eWBkdJlKFMBMGA1UdJQQMMAoGCCsG
AQUFBwMCMAsGA1UdDwQEAwIHgDANBgkqhkiG9w0BAQsFAAOCAQEAYg3163tQNJ9N
B9b2Nel1uGWwyykIY+VYfH9UecmI7etWU6Y0h55W9wLQyO9C2tYRNJ8fqwtLe2cU
o3t4t+MP66yd3QWvCfRg7F0RZTMRe/76omxvrOce/t55azYIZPf29eGtnM89+uY3
r9MxP7C4S7PA/X4cFuaE/K/DuwS6dsC7MZ1qn6EoI3MHbvE4bRC9OnowMVp/M3Gk
YLLXp2g9UyKLYV/G+W13WawXUoXTS02OqeuFlb4GzZEOthi4zM80NUzAquBTwn0p
eUQG+RIetGYSFKxeKG3UxTudRvaC/jkSdF2yYXYHRKKdGOA3Kh+xbFMyGpU5rPUX
OyiLDjx2tw==
-----END CERTIFICATE-----
