Certificate:
    Data:
        Version: 3 (0x2)
        Serial Number:
            b0:4f:dd:db:ae:b1:eb:54:a9:54:3f:5e:a0:bf:39:0e
        Signature Algorithm: sha256WithRSAEncryption
        Issuer: CN=Routerology-CA
        Validity
            Not Before: May 21 08:11:00 2023 GMT
            Not After : Aug 23 08:11:00 2025 GMT
        Subject: CN=john.doe
        Subject Public Key Info:
            Public Key Algorithm: rsaEncryption
                RSA Public-Key: (2048 bit)
                Modulus:
                    00:aa:5f:4c:0f:77:72:95:1b:03:72:36:bc:2e:e0:
                    7f:4a:3b:42:d1:6a:23:05:5a:ee:e6:4e:b8:c4:52:
                    be:d2:40:14:6a:e2:ca:74:24:5c:12:d4:24:f0:84:
                    f8:8a:a2:68:a0:8e:54:a9:0d:da:77:cc:57:58:1c:
                    fe:1e:30:59:4e:c2:a9:77:70:f4:d9:0a:a2:8a:40:
                    2d:4b:b2:f6:78:fd:bd:ad:ca:0e:3d:6f:bf:25:89:
                    db:d3:46:b2:2c:df:d0:c9:00:65:3e:e5:a1:0c:62:
                    f9:cf:80:c6:69:4d:a8:40:ed:14:65:ef:03:2c:59:
                    2a:24:57:f7:f8:5d:a0:e1:16:6e:5e:7c:50:3a:38:
                    4b:ef:83:54:43:1c:2f:ab:12:9d:2d:88:f3:b6:e2:
                    46:42:fd:2f:85:06:fd:59:55:58:fe:cb:71:22:52:
                    93:d3:a6:84:eb:b2:cf:18:a5:d9:04:96:9f:2b:34:
                    65:6b:c8:70:e0:dd:45:22:5a:1e:9d:0c:36:de:6d:
                    8c:6c:e2:f2:fe:ae:ac:4a:b7:19:b2:1e:25:b3:9e:
                    f1:8d:ef:e4:67:62:21:57:fd:9b:d6:da:e7:83:9e:
                    82:c5:ba:d1:0c:5c:2e:7c:29:57:68:99:a7:02:ee:
                    58:90:c7:a5:75:b0:49:4b:94:bf:60:52:d6:2a:a6:
                    d0:df
                Exponent: 65537 (0x10001)
        X509v3 extensions:
            X509v3 Basic Constraints: 
                CA:FALSE
            X509v3 Subject Key Identifier: 
                24:6A:DD:E8:5E:57:E4:9D:32:BE:E6:63:AF:E1:82:39:FA:7C:5F:8C
            X509v3 Authority Key Identifier: 
                keyid:A6:32:BA:CD:97:BC:9E:EA:A6:48:C5:77:32:33:B8:58:AB:EF:71:82
                DirName:/CN=Routerology-CA
                serial:7D:BC:4F:DC:F9:D4:1A:76:6A:DB:8F:0E:BE:DE:58:19:1D:26:52:85

            X509v3 Extended Key Usage: 
                TLS Web Client Authentication
            X509v3 Key Usage: 
                Digital Signature
    Signature Algorithm: sha256WithRSAEncryption
         6e:5d:da:a1:58:79:55:0e:7d:69:79:50:26:e5:6b:7f:2d:e9:
         33:0c:a7:db:bd:cf:2c:f6:e4:5d:35:ac:19:1a:4d:c5:b2:7c:
         8d:1d:82:d6:a5:c0:67:2b:07:f0:5e:a0:60:35:b4:5a:7a:78:
         e5:2b:b4:9e:9b:1e:9e:db:99:f5:3c:d3:95:9e:fb:4f:34:b6:
         80:de:ca:20:bb:c6:6b:55:72:f0:61:3d:1d:60:bb:14:ec:fc:
         34:70:18:05:67:f1:5a:58:eb:73:0f:aa:05:fd:b4:ea:94:f1:
         0c:dc:92:68:83:bf:ea:0c:d0:21:e1:bc:c8:11:36:c4:1c:24:
         84:d5:c9:4b:09:9f:58:fe:66:e2:53:d7:b1:12:39:6a:ae:98:
         cd:bc:ee:c7:50:d2:07:5b:a8:96:8a:c5:c8:de:4d:00:4c:88:
         75:b2:63:46:d0:61:d0:9c:b1:15:1c:42:f7:ab:17:8d:11:65:
         21:ba:1d:7b:b1:3a:7a:bb:c3:b9:63:50:95:9a:eb:64:c4:31:
         4a:8d:b6:c8:68:49:af:df:9d:19:04:04:8d:bb:66:38:85:b4:
         7d:88:08:d9:89:28:72:fc:71:fb:fd:ba:7e:ca:f4:19:40:1b:
         76:d2:23:79:a9:d6:a3:47:5c:d4:20:8d:6c:fe:eb:b6:3e:54:
         37:ae:82:3d
-----BEGIN CERTIFICATE-----
MIIDXTCCAkWgAwIBAgIRALBP3duusetUqVQ/XqC/OQ4wDQYJKoZIhvcNAQELBQAw
GTEXMBUGA1UEAwwOUm91dGVyb2xvZ3ktQ0EwHhcNMjMwNTIxMDgxMTAwWhcNMjUw
ODIzMDgxMTAwWjATMREwDwYDVQQDDAhqb2huLmRvZTCCASIwDQYJKoZIhvcNAQEB
BQADggEPADCCAQoCggEBAKpfTA93cpUbA3I2vC7gf0o7QtFqIwVa7uZOuMRSvtJA
FGriynQkXBLUJPCE+IqiaKCOVKkN2nfMV1gc/h4wWU7CqXdw9NkKoopALUuy9nj9
va3KDj1vvyWJ29NGsizf0MkAZT7loQxi+c+AxmlNqEDtFGXvAyxZKiRX9/hdoOEW
bl58UDo4S++DVEMcL6sSnS2I87biRkL9L4UG/VlVWP7LcSJSk9OmhOuyzxil2QSW
nys0ZWvIcODdRSJaHp0MNt5tjGzi8v6urEq3GbIeJbOe8Y3v5GdiIVf9m9ba54Oe
gsW60QxcLnwpV2iZpwLuWJDHpXWwSUuUv2BS1iqm0N8CAwEAAaOBpTCBojAJBgNV
HRMEAjAAMB0GA1UdDgQWBBQkat3oXlfknTK+5mOv4YI5+nxfjDBUBgNVHSMETTBL
gBSmMrrNl7ye6qZIxXcyM7hYq+9xgqEdpBswGTEXMBUGA1UEAwwOUm91dGVyb2xv
Z3ktQ0GCFH28T9z51Bp2atuPDr7eWBkdJlKFMBMGA1UdJQQMMAoGCCsGAQUFBwMC
MAsGA1UdDwQEAwIHgDANBgkqhkiG9w0BAQsFAAOCAQEAbl3aoVh5VQ59aXlQJuVr
fy3pMwyn273PLPbkXTWsGRpNxbJ8jR2C1qXAZysH8F6gYDW0Wnp45Su0npsentuZ
9TzTlZ77TzS2gN7KILvGa1Vy8GE9HWC7FOz8NHAYBWfxWljrcw+qBf206pTxDNyS
aIO/6gzQIeG8yBE2xBwkhNXJSwmfWP5m4lPXsRI5aq6Yzbzux1DSB1uolorFyN5N
AEyIdbJjRtBh0JyxFRxC96sXjRFlIbode7E6ervDuWNQlZrrZMQxSo22yGhJr9+d
GQQEjbtmOIW0fYgI2Ykocvxx+/26fsr0GUAbdtIjeanWo0dc1CCNbP7rtj5UN66C
PQ==
-----END CERTIFICATE-----
