Certificate:
    Data:
        Version: 3 (0x2)
        Serial Number:
            4c:59:ea:3e:4f:5e:b5:5b:f6:a9:ce:ab:0c:35:80:d9
        Signature Algorithm: sha256WithRSAEncryption
        Issuer: CN=Routerology-CA
        Validity
            Not Before: May 20 21:44:46 2023 GMT
            Not After : Aug 22 21:44:46 2025 GMT
        Subject: CN=Routerology-OVPN-Server
        Subject Public Key Info:
            Public Key Algorithm: rsaEncryption
                RSA Public-Key: (2048 bit)
                Modulus:
                    00:c2:d8:c4:32:92:8e:a3:b4:34:15:a9:87:96:cb:
                    ef:c0:d2:b1:bb:42:83:50:fa:c4:ed:de:45:86:78:
                    41:be:02:59:ac:98:28:ac:b2:85:c2:f4:a5:67:d8:
                    1c:82:9d:ce:a9:2d:71:95:0d:f2:5d:f8:8e:2c:30:
                    be:f9:79:4a:79:f0:10:68:43:ec:ca:c5:a4:84:2b:
                    0b:26:04:7d:ef:3a:7e:1e:35:f4:37:c8:f4:3b:47:
                    6d:d6:9a:74:49:b4:1a:fa:70:01:4c:b9:5c:24:6c:
                    d5:6f:94:13:3c:7f:00:09:72:94:d1:14:0e:44:31:
                    58:8d:8a:06:22:13:ea:cf:19:e5:30:a7:fc:50:b1:
                    68:39:2c:e8:76:73:c8:78:40:23:1f:7a:40:7e:3b:
                    7f:d3:9b:b1:d8:39:26:f0:14:cb:33:0d:9a:c9:e5:
                    84:65:96:8b:0f:f8:79:c4:6f:eb:8b:14:19:4c:09:
                    38:7d:9d:43:e4:05:3d:16:a8:86:0b:36:5a:40:df:
                    5a:4e:d3:11:ec:5b:f3:a3:58:ba:3b:8e:09:eb:34:
                    fb:3b:e5:65:dc:0c:9e:3b:6c:1b:b5:3e:03:60:ee:
                    18:11:f1:f9:df:19:e5:7d:f1:c7:e6:48:59:b2:78:
                    f2:d2:f9:28:42:c9:91:9c:b4:c4:18:49:41:0d:32:
                    d1:01
                Exponent: 65537 (0x10001)
        X509v3 extensions:
            X509v3 Basic Constraints: 
                CA:FALSE
            X509v3 Subject Key Identifier: 
                27:6E:8E:A7:CA:13:7A:EF:B0:C6:E1:73:47:10:33:27:18:A8:86:4A
            X509v3 Authority Key Identifier: 
                keyid:B5:07:26:AA:60:14:DB:C9:E2:DC:A1:82:4F:9A:C9:24:85:2C:2D:1B
                DirName:/CN=Routerology-CA
                serial:4E:0D:8A:01:93:69:8D:AF:54:A8:F5:61:66:7B:EE:DD:EC:E4:74:C0

            X509v3 Extended Key Usage: 
                TLS Web Server Authentication
            X509v3 Key Usage: 
                Digital Signature, Key Encipherment
            X509v3 Subject Alternative Name: 
                DNS:Routerology-OVPN-Server
    Signature Algorithm: sha256WithRSAEncryption
         4f:38:17:9b:91:b3:41:8c:7b:5d:b5:a2:a3:88:de:f9:ff:4c:
         f0:c9:b7:c0:8c:bc:65:32:a8:4b:ea:05:88:a6:ed:5c:1b:d3:
         c3:4c:8a:87:eb:52:ce:7b:df:75:72:66:8b:fa:6b:64:16:21:
         a3:5a:d2:30:e8:72:bd:ee:fa:46:66:84:cd:77:f9:71:b2:26:
         ad:d7:c9:a1:67:5e:76:12:2b:c4:bf:62:0b:e8:5e:92:81:07:
         8e:e3:91:a3:83:e2:43:cd:3a:82:6d:cb:27:4f:ed:d0:58:7e:
         33:50:d8:b0:c3:1d:59:fe:14:50:72:68:5e:96:6e:2b:e8:86:
         df:ca:48:77:05:fa:bf:1c:41:32:0e:54:ca:bf:a7:0c:cd:99:
         64:52:7e:f0:49:a2:30:bf:66:6d:30:e6:64:15:06:34:95:ad:
         be:7f:06:73:51:46:62:a5:4a:4c:8c:28:53:69:c0:7d:40:07:
         29:c3:74:f6:d7:01:11:ea:42:f9:65:7e:5d:ee:c0:aa:01:48:
         18:bc:0d:e4:04:51:85:f4:e3:0d:94:7d:94:94:6d:15:36:a9:
         2e:ef:7e:e1:2d:5b:9a:7a:17:a1:7a:e3:8e:71:b2:e0:fb:73:
         50:46:27:77:d3:65:9e:b9:de:62:84:ad:e2:dc:08:27:ab:70:
         fb:e2:c2:ed
-----BEGIN CERTIFICATE-----
MIIDjzCCAnegAwIBAgIQTFnqPk9etVv2qc6rDDWA2TANBgkqhkiG9w0BAQsFADAZ
MRcwFQYDVQQDDA5Sb3V0ZXJvbG9neS1DQTAeFw0yMzA1MjAyMTQ0NDZaFw0yNTA4
MjIyMTQ0NDZaMCIxIDAeBgNVBAMMF1JvdXRlcm9sb2d5LU9WUE4tU2VydmVyMIIB
IjANBgkqhkiG9w0BAQEFAAOCAQ8AMIIBCgKCAQEAwtjEMpKOo7Q0FamHlsvvwNKx
u0KDUPrE7d5FhnhBvgJZrJgorLKFwvSlZ9gcgp3OqS1xlQ3yXfiOLDC++XlKefAQ
aEPsysWkhCsLJgR97zp+HjX0N8j0O0dt1pp0SbQa+nABTLlcJGzVb5QTPH8ACXKU
0RQORDFYjYoGIhPqzxnlMKf8ULFoOSzodnPIeEAjH3pAfjt/05ux2Dkm8BTLMw2a
yeWEZZaLD/h5xG/rixQZTAk4fZ1D5AU9FqiGCzZaQN9aTtMR7Fvzo1i6O44J6zT7
O+Vl3AyeO2wbtT4DYO4YEfH53xnlffHH5khZsnjy0vkoQsmRnLTEGElBDTLRAQID
AQABo4HJMIHGMAkGA1UdEwQCMAAwHQYDVR0OBBYEFCdujqfKE3rvsMbhc0cQMycY
qIZKMFQGA1UdIwRNMEuAFLUHJqpgFNvJ4tyhgk+aySSFLC0boR2kGzAZMRcwFQYD
VQQDDA5Sb3V0ZXJvbG9neS1DQYIUTg2KAZNpja9UqPVhZnvu3ezkdMAwEwYDVR0l
BAwwCgYIKwYBBQUHAwEwCwYDVR0PBAQDAgWgMCIGA1UdEQQbMBmCF1JvdXRlcm9s
b2d5LU9WUE4tU2VydmVyMA0GCSqGSIb3DQEBCwUAA4IBAQBPOBebkbNBjHtdtaKj
iN75/0zwybfAjLxlMqhL6gWIpu1cG9PDTIqH61LOe991cmaL+mtkFiGjWtIw6HK9
7vpGZoTNd/lxsiat18mhZ152EivEv2IL6F6SgQeO45Gjg+JDzTqCbcsnT+3QWH4z
UNiwwx1Z/hRQcmhelm4r6Ibfykh3Bfq/HEEyDlTKv6cMzZlkUn7wSaIwv2ZtMOZk
FQY0la2+fwZzUUZipUpMjChTacB9QAcpw3T21wER6kL5ZX5d7sCqAUgYvA3kBFGF
9OMNlH2UlG0VNqku737hLVuaeheheuOOcbLg+3NQRid302Weud5ihK3i3Agnq3D7
4sLt
-----END CERTIFICATE-----
