Certificate:
    Data:
        Version: 3 (0x2)
        Serial Number:
            02:a8:c7:71:c3:87:60:94:b7:07:93:18:be:e9:a2:6d
        Signature Algorithm: sha256WithRSAEncryption
        Issuer: CN=Routerology-CA
        Validity
            Not Before: Apr  5 14:42:14 2025 GMT
            Not After : Jul  9 14:42:14 2027 GMT
        Subject: CN=routerology-vpn-srv
        Subject Public Key Info:
            Public Key Algorithm: rsaEncryption
                Public-Key: (2048 bit)
                Modulus:
                    00:b6:b7:93:93:e0:a9:e7:00:b1:ad:77:d5:b3:8d:
                    96:a1:b1:e6:79:74:ca:76:f3:3a:39:45:a8:c8:7f:
                    6e:47:6a:21:97:48:b1:b4:50:0a:39:9a:a0:31:66:
                    40:12:4e:cd:a2:1f:4c:8a:1f:24:77:99:2c:c2:6e:
                    06:e7:ef:11:ff:53:16:bf:04:b9:7f:31:ec:3b:ee:
                    15:11:47:5f:67:ec:c9:bb:29:d2:97:16:2f:6c:75:
                    7e:2b:58:e4:a6:6a:67:a0:9c:04:fd:b6:cc:95:15:
                    d0:62:c6:da:47:df:72:7c:cb:e9:0e:ca:ee:8a:bf:
                    45:a0:5b:14:cc:f2:67:be:23:03:6d:6c:ae:cb:f5:
                    4c:9d:f1:a2:cc:59:40:ec:1c:99:76:b4:10:88:5f:
                    d9:e3:ad:1c:0c:94:88:49:c5:d6:63:84:e5:74:9c:
                    cf:fe:65:85:7b:72:ae:92:cd:b1:e5:b5:52:c4:66:
                    69:7e:a4:64:03:74:e4:48:a4:da:39:3e:92:96:28:
                    93:60:1f:e6:9d:a4:53:9b:38:74:96:a5:05:e9:8b:
                    41:5e:03:aa:32:e5:99:4d:1f:02:90:1e:a6:04:89:
                    07:5d:7b:ae:df:07:b9:5b:cc:00:6f:3b:8b:1d:d3:
                    b8:01:5f:37:79:bc:ef:e4:a9:3a:ca:9e:75:4b:d5:
                    09:e7
                Exponent: 65537 (0x10001)
        X509v3 extensions:
            X509v3 Basic Constraints: 
                CA:FALSE
            X509v3 Subject Key Identifier: 
                13:35:BE:33:F2:EE:15:F9:04:E1:FE:11:21:0D:92:11:7D:3C:67:6F
            X509v3 Authority Key Identifier: 
                keyid:B0:51:74:75:13:FA:39:0E:60:3D:42:20:76:43:B0:5D:38:08:99:BA
                DirName:/CN=Routerology-CA
                serial:29:DC:42:BB:72:9A:76:3F:43:2E:9C:DC:1E:84:F8:E8:26:02:B6:41
            X509v3 Extended Key Usage: 
                TLS Web Server Authentication
            X509v3 Key Usage: 
                Digital Signature, Key Encipherment
            X509v3 Subject Alternative Name: 
                DNS:routerology-vpn-srv
    Signature Algorithm: sha256WithRSAEncryption
    Signature Value:
        55:a4:d0:b0:06:fb:93:36:c8:7c:27:0c:8d:2c:e7:91:1e:df:
        b2:7f:e3:e2:31:ed:5b:8d:e2:e2:8a:15:11:1a:85:01:41:4a:
        be:84:f0:ab:7a:70:59:94:34:3c:3e:1d:af:83:0a:90:fb:d7:
        b0:58:bf:44:d2:fe:62:39:23:99:58:8b:e8:8b:29:7d:b4:6b:
        b4:33:b6:e7:c1:b3:97:8b:1a:24:62:e5:f0:26:23:80:a5:4b:
        ad:2b:e9:64:59:88:73:0e:d4:02:d6:ac:96:3f:c6:80:57:db:
        44:d4:db:72:7f:57:53:e6:f2:62:a7:c1:91:e8:82:d6:48:31:
        59:79:79:b4:1b:e8:65:87:05:b1:9e:3d:7c:a2:f2:80:c9:86:
        ba:d4:f5:c1:01:ea:83:0c:6b:01:40:cf:8a:07:42:c1:5d:c2:
        1a:b0:f9:e3:8e:d4:9d:4e:75:c5:af:76:9a:bc:3b:98:52:a4:
        a5:6a:e5:0d:a8:06:a5:67:c0:6e:8e:07:f5:4d:24:e6:57:30:
        cb:03:23:64:72:4d:c5:42:ba:07:7e:50:54:41:54:9a:12:18:
        bb:2a:53:68:2b:af:c9:3e:92:e9:59:eb:02:33:d0:68:bd:0b:
        90:ff:f0:0f:6e:8a:1f:13:9b:7b:a3:aa:45:23:89:e7:bc:d2:
        73:37:c1:e5
-----BEGIN CERTIFICATE-----
MIIDhzCCAm+gAwIBAgIQAqjHccOHYJS3B5MYvumibTANBgkqhkiG9w0BAQsFADAZ
MRcwFQYDVQQDDA5Sb3V0ZXJvbG9neS1DQTAeFw0yNTA0MDUxNDQyMTRaFw0yNzA3
MDkxNDQyMTRaMB4xHDAaBgNVBAMME3JvdXRlcm9sb2d5LXZwbi1zcnYwggEiMA0G
CSqGSIb3DQEBAQUAA4IBDwAwggEKAoIBAQC2t5OT4KnnALGtd9WzjZahseZ5dMp2
8zo5RajIf25HaiGXSLG0UAo5mqAxZkASTs2iH0yKHyR3mSzCbgbn7xH/Uxa/BLl/
Mew77hURR19n7Mm7KdKXFi9sdX4rWOSmamegnAT9tsyVFdBixtpH33J8y+kOyu6K
v0WgWxTM8me+IwNtbK7L9Uyd8aLMWUDsHJl2tBCIX9njrRwMlIhJxdZjhOV0nM/+
ZYV7cq6SzbHltVLEZml+pGQDdORIpNo5PpKWKJNgH+adpFObOHSWpQXpi0FeA6oy
5ZlNHwKQHqYEiQdde67fB7lbzABvO4sd07gBXzd5vO/kqTrKnnVL1QnnAgMBAAGj
gcUwgcIwCQYDVR0TBAIwADAdBgNVHQ4EFgQUEzW+M/LuFfkE4f4RIQ2SEX08Z28w
VAYDVR0jBE0wS4AUsFF0dRP6OQ5gPUIgdkOwXTgImbqhHaQbMBkxFzAVBgNVBAMM
DlJvdXRlcm9sb2d5LUNBghQp3EK7cpp2P0MunNwehPjoJgK2QTATBgNVHSUEDDAK
BggrBgEFBQcDATALBgNVHQ8EBAMCBaAwHgYDVR0RBBcwFYITcm91dGVyb2xvZ3kt
dnBuLXNydjANBgkqhkiG9w0BAQsFAAOCAQEAVaTQsAb7kzbIfCcMjSznkR7fsn/j
4jHtW43i4ooVERqFAUFKvoTwq3pwWZQ0PD4dr4MKkPvXsFi/RNL+YjkjmViL6Isp
fbRrtDO258Gzl4saJGLl8CYjgKVLrSvpZFmIcw7UAtaslj/GgFfbRNTbcn9XU+by
YqfBkeiC1kgxWXl5tBvoZYcFsZ49fKLygMmGutT1wQHqgwxrAUDPigdCwV3CGrD5
447UnU51xa92mrw7mFKkpWrlDagGpWfAbo4H9U0k5lcwywMjZHJNxUK6B35QVEFU
mhIYuypTaCuvyT6S6VnrAjPQaL0LkP/wD26KHxObe6OqRSOJ57zSczfB5Q==
-----END CERTIFICATE-----
